target datalayout = "e-m:e-p270:32:32-p271:32:32-p272:64:64-i64:64-i128:128-f80:128-n8:16:32:64-S128"
target triple = "x86_64-pc-linux-gnu"

%struct.Image = type { ptr, i32, i32, i32, i32 }

; Function Attrs: nounwind uwtable
define i32 @GetPixelDataSize(i32 noundef %0, i32 noundef %1, i32 noundef %2) #0 {
  %4 = alloca i32, align 4
  %5 = alloca i32, align 4
  %6 = alloca i32, align 4
  %7 = alloca i32, align 4
  %8 = alloca i32, align 4
  %9 = alloca double, align 8
  store i32 %0, ptr %4, align 4
  store i32 %1, ptr %5, align 4
  store i32 %2, ptr %6, align 4
  call void @llvm.lifetime.start.p0(i64 4, ptr %7) #19
  store i32 0, ptr %7, align 4
  call void @llvm.lifetime.start.p0(i64 4, ptr %8) #19
  store i32 0, ptr %8, align 4
  %10 = load i32, ptr %6, align 4
  switch i32 %10, label %24 [
    i32 1, label %11
    i32 2, label %12
    i32 3, label %12
    i32 5, label %12
    i32 6, label %12
    i32 7, label %13
    i32 4, label %14
    i32 8, label %15
    i32 9, label %16
    i32 10, label %17
    i32 11, label %18
    i32 12, label %19
    i32 13, label %20
    i32 14, label %21
    i32 15, label %21
    i32 18, label %21
    i32 19, label %21
    i32 21, label %21
    i32 22, label %21
    i32 16, label %22
    i32 17, label %22
    i32 20, label %22
    i32 23, label %22
    i32 24, label %23
  ]

11:                                               ; preds = %3
  store i32 8, ptr %8, align 4
  br label %25

12:                                               ; preds = %3, %3, %3, %3
  store i32 16, ptr %8, align 4
  br label %25

13:                                               ; preds = %3
  store i32 32, ptr %8, align 4
  br label %25

14:                                               ; preds = %3
  store i32 24, ptr %8, align 4
  br label %25

15:                                               ; preds = %3
  store i32 32, ptr %8, align 4
  br label %25

16:                                               ; preds = %3
  store i32 96, ptr %8, align 4
  br label %25

17:                                               ; preds = %3
  store i32 128, ptr %8, align 4
  br label %25

18:                                               ; preds = %3
  store i32 16, ptr %8, align 4
  br label %25

19:                                               ; preds = %3
  store i32 48, ptr %8, align 4
  br label %25

20:                                               ; preds = %3
  store i32 64, ptr %8, align 4
  br label %25

21:                                               ; preds = %3, %3, %3, %3, %3, %3
  store i32 4, ptr %8, align 4
  br label %25

22:                                               ; preds = %3, %3, %3, %3
  store i32 8, ptr %8, align 4
  br label %25

23:                                               ; preds = %3
  store i32 2, ptr %8, align 4
  br label %25

24:                                               ; preds = %3
  br label %25

25:                                               ; preds = %24, %23, %22, %21, %20, %19, %18, %17, %16, %15, %14, %13, %12, %11
  call void @llvm.lifetime.start.p0(i64 8, ptr %9) #19
  %26 = load i32, ptr %8, align 4
  %27 = sitofp i32 %26 to double
  %28 = fdiv double %27, 8.000000e+00
  store double %28, ptr %9, align 8
  %29 = load double, ptr %9, align 8
  %30 = load i32, ptr %4, align 4
  %31 = sitofp i32 %30 to double
  %32 = fmul double %29, %31
  %33 = load i32, ptr %5, align 4
  %34 = sitofp i32 %33 to double
  %35 = fmul double %32, %34
  %36 = fptosi double %35 to i32
  store i32 %36, ptr %7, align 4
  %37 = load i32, ptr %4, align 4
  %38 = icmp slt i32 %37, 4
  br i1 %38, label %39, label %58

39:                                               ; preds = %25
  %40 = load i32, ptr %5, align 4
  %41 = icmp slt i32 %40, 4
  br i1 %41, label %42, label %58

42:                                               ; preds = %39
  %43 = load i32, ptr %6, align 4
  %44 = icmp sge i32 %43, 14
  br i1 %44, label %45, label %49

45:                                               ; preds = %42
  %46 = load i32, ptr %6, align 4
  %47 = icmp slt i32 %46, 16
  br i1 %47, label %48, label %49

48:                                               ; preds = %45
  store i32 8, ptr %7, align 4
  br label %57

49:                                               ; preds = %45, %42
  %50 = load i32, ptr %6, align 4
  %51 = icmp sge i32 %50, 16
  br i1 %51, label %52, label %56

52:                                               ; preds = %49
  %53 = load i32, ptr %6, align 4
  %54 = icmp slt i32 %53, 24
  br i1 %54, label %55, label %56

55:                                               ; preds = %52
  store i32 16, ptr %7, align 4
  br label %56

56:                                               ; preds = %55, %52, %49
  br label %57

57:                                               ; preds = %56, %48
  br label %58

58:                                               ; preds = %57, %39, %25
  %59 = load i32, ptr %7, align 4
  call void @llvm.lifetime.end.p0(i64 8, ptr %9) #19
  call void @llvm.lifetime.end.p0(i64 4, ptr %8) #19
  call void @llvm.lifetime.end.p0(i64 4, ptr %7) #19
  ret i32 %59
}

; Function Attrs: nounwind uwtable
define void @ImageCopy(ptr dead_on_unwind noalias writable sret(%struct.Image) align 8 %0, ptr noundef byval(%struct.Image) align 8 %1) #0 {
  %3 = alloca i32, align 4
  %4 = alloca i32, align 4
  %5 = alloca i32, align 4
  %6 = alloca i32, align 4
  call void @llvm.memset.p0.i64(ptr align 8 %0, i8 0, i64 24, i1 false)
  call void @llvm.lifetime.start.p0(i64 4, ptr %3) #19
  %7 = getelementptr inbounds nuw %struct.Image, ptr %1, i32 0, i32 1
  %8 = load i32, ptr %7, align 8
  store i32 %8, ptr %3, align 4
  call void @llvm.lifetime.start.p0(i64 4, ptr %4) #19
  %9 = getelementptr inbounds nuw %struct.Image, ptr %1, i32 0, i32 2
  %10 = load i32, ptr %9, align 4
  store i32 %10, ptr %4, align 4
  call void @llvm.lifetime.start.p0(i64 4, ptr %5) #19
  store i32 0, ptr %5, align 4
  call void @llvm.lifetime.start.p0(i64 4, ptr %6) #19
  store i32 0, ptr %6, align 4
  br label %11

11:                                               ; preds = %37, %2
  %12 = load i32, ptr %6, align 4
  %13 = getelementptr inbounds nuw %struct.Image, ptr %1, i32 0, i32 3
  %14 = load i32, ptr %13, align 8
  %15 = icmp slt i32 %12, %14
  br i1 %15, label %17, label %16

16:                                               ; preds = %11
  call void @llvm.lifetime.end.p0(i64 4, ptr %6) #19
  br label %40

17:                                               ; preds = %11
  %18 = load i32, ptr %3, align 4
  %19 = load i32, ptr %4, align 4
  %20 = getelementptr inbounds nuw %struct.Image, ptr %1, i32 0, i32 4
  %21 = load i32, ptr %20, align 4
  %22 = call i32 @GetPixelDataSize(i32 noundef %18, i32 noundef %19, i32 noundef %21)
  %23 = load i32, ptr %5, align 4
  %24 = add nsw i32 %23, %22
  store i32 %24, ptr %5, align 4
  %25 = load i32, ptr %3, align 4
  %26 = sdiv i32 %25, 2
  store i32 %26, ptr %3, align 4
  %27 = load i32, ptr %4, align 4
  %28 = sdiv i32 %27, 2
  store i32 %28, ptr %4, align 4
  %29 = load i32, ptr %3, align 4
  %30 = icmp slt i32 %29, 1
  br i1 %30, label %31, label %32

31:                                               ; preds = %17
  store i32 1, ptr %3, align 4
  br label %32

32:                                               ; preds = %31, %17
  %33 = load i32, ptr %4, align 4
  %34 = icmp slt i32 %33, 1
  br i1 %34, label %35, label %36

35:                                               ; preds = %32
  store i32 1, ptr %4, align 4
  br label %36

36:                                               ; preds = %35, %32
  br label %37

37:                                               ; preds = %36
  %38 = load i32, ptr %6, align 4
  %39 = add nsw i32 %38, 1
  store i32 %39, ptr %6, align 4
  br label %11

40:                                               ; preds = %16
  %41 = load i32, ptr %5, align 4
  %42 = sext i32 %41 to i64
  %43 = call noalias ptr @calloc(i64 noundef %42, i64 noundef 1) #23
  %44 = getelementptr inbounds nuw %struct.Image, ptr %0, i32 0, i32 0
  store ptr %43, ptr %44, align 8
  %45 = getelementptr inbounds nuw %struct.Image, ptr %0, i32 0, i32 0
  %46 = load ptr, ptr %45, align 8
  %47 = icmp ne ptr %46, null
  br i1 %47, label %48, label %67

48:                                               ; preds = %40
  %49 = getelementptr inbounds nuw %struct.Image, ptr %0, i32 0, i32 0
  %50 = load ptr, ptr %49, align 8
  %51 = getelementptr inbounds nuw %struct.Image, ptr %1, i32 0, i32 0
  %52 = load ptr, ptr %51, align 8
  %53 = load i32, ptr %5, align 4
  %54 = sext i32 %53 to i64
  call void @llvm.memcpy.p0.p0.i64(ptr align 1 %50, ptr align 1 %52, i64 %54, i1 false)
  %55 = getelementptr inbounds nuw %struct.Image, ptr %1, i32 0, i32 1
  %56 = load i32, ptr %55, align 8
  %57 = getelementptr inbounds nuw %struct.Image, ptr %0, i32 0, i32 1
  store i32 %56, ptr %57, align 8
  %58 = getelementptr inbounds nuw %struct.Image, ptr %1, i32 0, i32 2
  %59 = load i32, ptr %58, align 4
  %60 = getelementptr inbounds nuw %struct.Image, ptr %0, i32 0, i32 2
  store i32 %59, ptr %60, align 4
  %61 = getelementptr inbounds nuw %struct.Image, ptr %1, i32 0, i32 3
  %62 = load i32, ptr %61, align 8
  %63 = getelementptr inbounds nuw %struct.Image, ptr %0, i32 0, i32 3
  store i32 %62, ptr %63, align 8
  %64 = getelementptr inbounds nuw %struct.Image, ptr %1, i32 0, i32 4
  %65 = load i32, ptr %64, align 4
  %66 = getelementptr inbounds nuw %struct.Image, ptr %0, i32 0, i32 4
  store i32 %65, ptr %66, align 4
  br label %67

67:                                               ; preds = %48, %40
  call void @llvm.lifetime.end.p0(i64 4, ptr %5) #19
  call void @llvm.lifetime.end.p0(i64 4, ptr %4) #19
  call void @llvm.lifetime.end.p0(i64 4, ptr %3) #19
  ret void
}