; Function Attrs: nofree nounwind uwtable
define void @ImageCopy(ptr dead_on_unwind noalias writable writeonly sret(%struct.Image) align 8 captures(none) initializes((8, 24)) %0, ptr noundef readonly byval(%struct.Image) align 8 captures(none) %1) local_unnamed_addr #8 {
  %3 = getelementptr inbounds nuw i8, ptr %0, i64 8
  tail call void @llvm.memset.p0.i64(ptr noundef nonnull align 8 dereferenceable(24) %3, i8 0, i64 16, i1 false)
  %4 = getelementptr inbounds nuw i8, ptr %1, i64 8
  %5 = load i32, ptr %4, align 8
  %6 = getelementptr inbounds nuw i8, ptr %1, i64 12
  %7 = load i32, ptr %6, align 4
  %8 = getelementptr inbounds nuw i8, ptr %1, i64 16
  %9 = load i32, ptr %8, align 8
  %10 = icmp sgt i32 %9, 0
  br i1 %10, label %.lr.ph, label %._crit_edge

.lr.ph:                                           ; preds = %2
  %11 = getelementptr inbounds nuw i8, ptr %1, i64 20
  %12 = load i32, ptr %11, align 4
  %.fr37 = freeze i32 %12
  %13 = and i32 %.fr37, -2
  %or.cond3.i = icmp eq i32 %13, 14
  br i1 %or.cond3.i, label %.lr.ph.split.us.preheader, label %.lr.ph.split

.lr.ph.split.us.preheader:                        ; preds = %.lr.ph
  %switch.tableidx = add nsw i32 %.fr37, -1
  %14 = icmp ult i32 %switch.tableidx, 24
  %15 = zext nneg i32 %switch.tableidx to i64
  %switch.gep = getelementptr inbounds nuw [24 x double], ptr @switch.table.ImageDraw.32, i64 0, i64 %15
  br label %.lr.ph.split.us

.lr.ph.split.us:                                  ; preds = %.lr.ph.split.us.preheader, %GetPixelDataSize.exit.us
  %.019.us = phi i32 [ %26, %GetPixelDataSize.exit.us ], [ 0, %.lr.ph.split.us.preheader ]
  %.01218.us = phi i32 [ %23, %GetPixelDataSize.exit.us ], [ 0, %.lr.ph.split.us.preheader ]
  %.01317.us = phi i32 [ %spec.store.select1.us, %GetPixelDataSize.exit.us ], [ %7, %.lr.ph.split.us.preheader ]
  %.01416.us = phi i32 [ %spec.store.select.us, %GetPixelDataSize.exit.us ], [ %5, %.lr.ph.split.us.preheader ]
  br i1 %14, label %switch.lookup, label %GetPixelDataSize.exit.us

switch.lookup:                                    ; preds = %.lr.ph.split.us
  %switch.load = load double, ptr %switch.gep, align 8
  br label %GetPixelDataSize.exit.us

GetPixelDataSize.exit.us:                         ; preds = %switch.lookup, %.lr.ph.split.us
  %.016.i.us = phi double [ 0.000000e+00, %.lr.ph.split.us ], [ %switch.load, %switch.lookup ]
  %16 = sitofp i32 %.01416.us to double
  %17 = fmul double %.016.i.us, %16
  %18 = sitofp i32 %.01317.us to double
  %19 = fmul double %17, %18
  %20 = fptosi double %19 to i32
  %21 = icmp slt i32 %.01416.us, 4
  %22 = icmp slt i32 %.01317.us, 4
  %or.cond.i.us = and i1 %21, %22
  %spec.select = select i1 %or.cond.i.us, i32 8, i32 %20
  %23 = add nsw i32 %spec.select, %.01218.us
  %24 = sdiv i32 %.01416.us, 2
  %25 = sdiv i32 %.01317.us, 2
  %spec.store.select.us = tail call i32 @llvm.smax.i32(i32 %24, i32 1)
  %spec.store.select1.us = tail call i32 @llvm.smax.i32(i32 %25, i32 1)
  %26 = add nuw nsw i32 %.019.us, 1
  %exitcond43.not = icmp eq i32 %26, %9
  br i1 %exitcond43.not, label %._crit_edge, label %.lr.ph.split.us

.lr.ph.split:                                     ; preds = %.lr.ph
  %27 = and i32 %.fr37, -8
  %or.cond5.i = icmp eq i32 %27, 16
  br i1 %or.cond5.i, label %.lr.ph.split.split.us.preheader, label %.lr.ph.split.split.preheader

.lr.ph.split.split.preheader:                     ; preds = %.lr.ph.split
  %switch.tableidx57 = add i32 %.fr37, -1
  %28 = icmp ult i32 %switch.tableidx57, 24
  %29 = zext nneg i32 %switch.tableidx57 to i64
  %switch.gep58 = getelementptr inbounds nuw [24 x double], ptr @switch.table.ImageDraw.32, i64 0, i64 %29
  br label %.lr.ph.split.split

.lr.ph.split.split.us.preheader:                  ; preds = %.lr.ph.split
  %switch.tableidx53 = add nsw i32 %.fr37, -1
  %30 = icmp ult i32 %switch.tableidx53, 24
  %31 = zext nneg i32 %switch.tableidx53 to i64
  %switch.gep54 = getelementptr inbounds nuw [24 x double], ptr @switch.table.ImageDraw.32, i64 0, i64 %31
  br label %.lr.ph.split.split.us

.lr.ph.split.split.us:                            ; preds = %.lr.ph.split.split.us.preheader, %GetPixelDataSize.exit.us28
  %.019.us22 = phi i32 [ %42, %GetPixelDataSize.exit.us28 ], [ 0, %.lr.ph.split.split.us.preheader ]
  %.01218.us23 = phi i32 [ %39, %GetPixelDataSize.exit.us28 ], [ 0, %.lr.ph.split.split.us.preheader ]
  %.01317.us24 = phi i32 [ %spec.store.select1.us31, %GetPixelDataSize.exit.us28 ], [ %7, %.lr.ph.split.split.us.preheader ]
  %.01416.us25 = phi i32 [ %spec.store.select.us30, %GetPixelDataSize.exit.us28 ], [ %5, %.lr.ph.split.split.us.preheader ]
  br i1 %30, label %switch.lookup52, label %GetPixelDataSize.exit.us28

switch.lookup52:                                  ; preds = %.lr.ph.split.split.us
  %switch.load55 = load double, ptr %switch.gep54, align 8
  br label %GetPixelDataSize.exit.us28

GetPixelDataSize.exit.us28:                       ; preds = %switch.lookup52, %.lr.ph.split.split.us
  %.016.i.us26 = phi double [ 0.000000e+00, %.lr.ph.split.split.us ], [ %switch.load55, %switch.lookup52 ]
  %32 = sitofp i32 %.01416.us25 to double
  %33 = fmul double %.016.i.us26, %32
  %34 = sitofp i32 %.01317.us24 to double
  %35 = fmul double %33, %34
  %36 = fptosi double %35 to i32
  %37 = icmp slt i32 %.01416.us25, 4
  %38 = icmp slt i32 %.01317.us24, 4
  %or.cond.i.us27 = and i1 %37, %38
  %spec.select36 = select i1 %or.cond.i.us27, i32 16, i32 %36
  %39 = add nsw i32 %spec.select36, %.01218.us23
  %40 = sdiv i32 %.01416.us25, 2
  %41 = sdiv i32 %.01317.us24, 2
  %spec.store.select.us30 = tail call i32 @llvm.smax.i32(i32 %40, i32 1)
  %spec.store.select1.us31 = tail call i32 @llvm.smax.i32(i32 %41, i32 1)
  %42 = add nuw nsw i32 %.019.us22, 1
  %exitcond42.not = icmp eq i32 %42, %9
  br i1 %exitcond42.not, label %._crit_edge, label %.lr.ph.split.split.us

._crit_edge:                                      ; preds = %GetPixelDataSize.exit, %GetPixelDataSize.exit.us28, %GetPixelDataSize.exit.us, %2
  %.012.lcssa = phi i32 [ 0, %2 ], [ %23, %GetPixelDataSize.exit.us ], [ %39, %GetPixelDataSize.exit.us28 ], [ %50, %GetPixelDataSize.exit ]
  %43 = sext i32 %.012.lcssa to i64
  %44 = tail call noalias ptr @calloc(i64 noundef %43, i64 noundef 1) #58
  store ptr %44, ptr %0, align 8
  %.not = icmp eq ptr %44, null
  br i1 %.not, label %62, label %54

.lr.ph.split.split:                               ; preds = %.lr.ph.split.split.preheader, %GetPixelDataSize.exit
  %.019 = phi i32 [ %53, %GetPixelDataSize.exit ], [ 0, %.lr.ph.split.split.preheader ]
  %.01218 = phi i32 [ %50, %GetPixelDataSize.exit ], [ 0, %.lr.ph.split.split.preheader ]
  %.01317 = phi i32 [ %spec.store.select1, %GetPixelDataSize.exit ], [ %7, %.lr.ph.split.split.preheader ]
  %.01416 = phi i32 [ %spec.store.select, %GetPixelDataSize.exit ], [ %5, %.lr.ph.split.split.preheader ]
  br i1 %28, label %switch.lookup56, label %GetPixelDataSize.exit

switch.lookup56:                                  ; preds = %.lr.ph.split.split
  %switch.load59 = load double, ptr %switch.gep58, align 8
  br label %GetPixelDataSize.exit

GetPixelDataSize.exit:                            ; preds = %switch.lookup56, %.lr.ph.split.split
  %.016.i = phi double [ 0.000000e+00, %.lr.ph.split.split ], [ %switch.load59, %switch.lookup56 ]
  %45 = sitofp i32 %.01416 to double
  %46 = fmul double %.016.i, %45
  %47 = sitofp i32 %.01317 to double
  %48 = fmul double %46, %47
  %49 = fptosi double %48 to i32
  %50 = add nsw i32 %.01218, %49
  %51 = sdiv i32 %.01416, 2
  %52 = sdiv i32 %.01317, 2
  %spec.store.select = tail call i32 @llvm.smax.i32(i32 %51, i32 1)
  %spec.store.select1 = tail call i32 @llvm.smax.i32(i32 %52, i32 1)
  %53 = add nuw nsw i32 %.019, 1
  %exitcond.not = icmp eq i32 %53, %9
  br i1 %exitcond.not, label %._crit_edge, label %.lr.ph.split.split

54:                                               ; preds = %._crit_edge
  %55 = load ptr, ptr %1, align 8
  tail call void @llvm.memcpy.p0.p0.i64(ptr nonnull align 1 %44, ptr align 1 %55, i64 %43, i1 false)
  %56 = getelementptr inbounds nuw i8, ptr %0, i64 8
  store i32 %5, ptr %56, align 8
  %57 = getelementptr inbounds nuw i8, ptr %0, i64 12
  store i32 %7, ptr %57, align 4
  %58 = getelementptr inbounds nuw i8, ptr %0, i64 16
  store i32 %9, ptr %58, align 8
  %59 = getelementptr inbounds nuw i8, ptr %1, i64 20
  %60 = load i32, ptr %59, align 4
  %61 = getelementptr inbounds nuw i8, ptr %0, i64 20
  store i32 %60, ptr %61, align 4
  br label %62

62:                                               ; preds = %54, %._crit_edge
  ret void
}